; Function Attrs: null_pointer_is_valid sspstrong uwtable
define internal zeroext i16 @de_bssgp_ran_inf_request_rim_cont(ptr noundef %0, ptr noundef %1, ptr noundef %2, i32 noundef %3, i32 noundef %4, ptr readnone captures(none) %5, i32 %6) #1 {
  %8 = tail call zeroext i16 @elem_telv(ptr noundef %0, ptr noundef %1, ptr noundef %2, i8 noundef zeroext 75, i32 noundef 13, i32 noundef 49, i32 noundef %3, i32 noundef %4, ptr noundef null)
  %.not = icmp eq i16 %8, 0
  br i1 %.not, label %13, label %9

9:                                                ; preds = %7
  %10 = zext i16 %8 to i32
  %11 = add i32 %3, %10
  %12 = sub i32 %4, %10
  br label %16

13:                                               ; preds = %7
  %14 = tail call ptr @get_gsm_a_msg_string(i32 noundef 13, i32 noundef 49)
  %15 = tail call ptr (ptr, ptr, ptr, ptr, i32, i32, ptr, ...) @proto_tree_add_expert_format(ptr noundef %1, ptr noundef %2, ptr noundef nonnull @ei_bssgp_missing_mandatory_element, ptr noundef %0, i32 noundef %3, i32 noundef 0, ptr noundef nonnull @.str.6, i32 noundef 75, ptr noundef %14, ptr noundef nonnull @.str.7)
  br label %16

16:                                               ; preds = %13, %9
  %.072 = phi i32 [ %11, %9 ], [ %3, %13 ]
  %.0 = phi i32 [ %12, %9 ], [ %4, %13 ]
  %17 = tail call zeroext i16 @elem_telv(ptr noundef %0, ptr noundef %1, ptr noundef %2, i8 noundef zeroext 76, i32 noundef 13, i32 noundef 50, i32 noundef %.072, i32 noundef %.0, ptr noundef null)
  %.not83 = icmp eq i16 %17, 0
  br i1 %.not83, label %22, label %18

18:                                               ; preds = %16
  %19 = zext i16 %17 to i32
  %20 = add i32 %.072, %19
  %21 = sub i32 %.0, %19
  br label %25

22:                                               ; preds = %16
  %23 = tail call ptr @get_gsm_a_msg_string(i32 noundef 13, i32 noundef 50)
  %24 = tail call ptr (ptr, ptr, ptr, ptr, i32, i32, ptr, ...) @proto_tree_add_expert_format(ptr noundef %1, ptr noundef %2, ptr noundef nonnull @ei_bssgp_missing_mandatory_element, ptr noundef %0, i32 noundef %.072, i32 noundef 0, ptr noundef nonnull @.str.6, i32 noundef 76, ptr noundef %23, ptr noundef nonnull @.str.7)
  br label %25

25:                                               ; preds = %22, %18
  %.173 = phi i32 [ %20, %18 ], [ %.072, %22 ]
  %.1 = phi i32 [ %21, %18 ], [ %.0, %22 ]
  %26 = tail call zeroext i16 @elem_telv(ptr noundef %0, ptr noundef %1, ptr noundef %2, i8 noundef zeroext 79, i32 noundef 13, i32 noundef 59, i32 noundef %.173, i32 noundef %.1, ptr noundef null)
  %.not84 = icmp eq i16 %26, 0
  br i1 %.not84, label %31, label %27

27:                                               ; preds = %25
  %28 = zext i16 %26 to i32
  %29 = add i32 %.173, %28
  %30 = sub i32 %.1, %28
  br label %34

31:                                               ; preds = %25
  %32 = tail call ptr @get_gsm_a_msg_string(i32 noundef 13, i32 noundef 59)
  %33 = tail call ptr (ptr, ptr, ptr, ptr, i32, i32, ptr, ...) @proto_tree_add_expert_format(ptr noundef %1, ptr noundef %2, ptr noundef nonnull @ei_bssgp_missing_mandatory_element, ptr noundef %0, i32 noundef %.173, i32 noundef 0, ptr noundef nonnull @.str.6, i32 noundef 79, ptr noundef %32, ptr noundef nonnull @.str.7)
  br label %34

34:                                               ; preds = %31, %27
  %.274 = phi i32 [ %29, %27 ], [ %.173, %31 ]
  %.2 = phi i32 [ %30, %27 ], [ %.1, %31 ]
  %.not85 = icmp eq i32 %.2, 0
  br i1 %.not85, label %.thread100, label %35

35:                                               ; preds = %34
  %36 = tail call zeroext i16 @elem_telv(ptr noundef %0, ptr noundef %1, ptr noundef %2, i8 noundef zeroext 85, i32 noundef 13, i32 noundef 60, i32 noundef %.274, i32 noundef %.2, ptr noundef null)
  %.not86 = icmp eq i16 %36, 0
  br i1 %.not86, label %.thread94, label %37

37:                                               ; preds = %35
  %38 = zext i16 %36 to i32
  %39 = add i32 %.274, %38
  %40 = sub i32 %.2, %38
  %.not87 = icmp eq i32 %40, 0
  br i1 %.not87, label %.thread100, label %.thread94

.thread94:                                        ; preds = %35, %37
  %.399 = phi i32 [ %40, %37 ], [ %.2, %35 ]
  %.37598 = phi i32 [ %39, %37 ], [ %.274, %35 ]
  %41 = tail call zeroext i16 @elem_telv(ptr noundef %0, ptr noundef %1, ptr noundef %2, i8 noundef zeroext 77, i32 noundef 13, i32 noundef 56, i32 noundef %.37598, i32 noundef %.399, ptr noundef null)
  %.not88 = icmp eq i16 %41, 0
  br i1 %.not88, label %.thread104, label %42

42:                                               ; preds = %.thread94
  %43 = zext i16 %41 to i32
  %44 = add i32 %.37598, %43
  %45 = sub i32 %.399, %43
  %.not89 = icmp eq i32 %45, 0
  br i1 %.not89, label %.thread100, label %.thread104

.thread104:                                       ; preds = %.thread94, %42
  %.4109 = phi i32 [ %45, %42 ], [ %.399, %.thread94 ]
  %.476108 = phi i32 [ %44, %42 ], [ %.37598, %.thread94 ]
  %46 = tail call zeroext i16 @elem_telv(ptr noundef %0, ptr noundef %1, ptr noundef %2, i8 noundef zeroext -124, i32 noundef 13, i32 noundef 98, i32 noundef %.476108, i32 noundef %.4109, ptr noundef null)
  %.not90 = icmp eq i16 %46, 0
  br i1 %.not90, label %.thread100, label %47

47:                                               ; preds = %.thread104
  %48 = zext i16 %46 to i32
  %49 = add i32 %.476108, %48
  br label %.thread100

.thread100:                                       ; preds = %34, %37, %.thread104, %47, %42
  %.5 = phi i32 [ %49, %47 ], [ %.476108, %.thread104 ], [ %44, %42 ], [ %39, %37 ], [ %.274, %34 ]
  %50 = sub i32 %.5, %3
  %51 = trunc i32 %50 to i16
  ret i16 %51
}